target datalayout = "e-m:e-p270:32:32-p271:32:32-p272:64:64-i64:64-i128:128-f80:128-n8:16:32:64-S128"
target triple = "x86_64-pc-linux-gnu"

%struct._php_random_status_state_pcgoneseq128xslrr64 = type { i128 }

; Function Attrs: nounwind uwtable
define internal { i64, i64 } @php_random_uint128_add(i64 noundef %0, i64 noundef %1, i64 noundef %2, i64 noundef %3) #0 {
  %5 = alloca i128, align 16
  %6 = alloca i128, align 16
  %7 = alloca i128, align 16
  %8 = alloca i128, align 16
  %9 = alloca i128, align 16
  %10 = getelementptr inbounds { i64, i64 }, ptr %6, i32 0, i32 0
  store i64 %0, ptr %10, align 16
  %11 = getelementptr inbounds { i64, i64 }, ptr %6, i32 0, i32 1
  store i64 %1, ptr %11, align 8
  %12 = load i128, ptr %6, align 16
  %13 = getelementptr inbounds { i64, i64 }, ptr %7, i32 0, i32 0
  store i64 %2, ptr %13, align 16
  %14 = getelementptr inbounds { i64, i64 }, ptr %7, i32 0, i32 1
  store i64 %3, ptr %14, align 8
  %15 = load i128, ptr %7, align 16
  store i128 %12, ptr %8, align 16
  store i128 %15, ptr %9, align 16
  %16 = load i128, ptr %8, align 16
  %17 = load i128, ptr %9, align 16
  %18 = add i128 %16, %17
  store i128 %18, ptr %5, align 16
  %19 = load { i64, i64 }, ptr %5, align 16
  ret { i64, i64 } %19
}

; Function Attrs: nounwind uwtable
define internal { i64, i64 } @php_random_uint128_multiply(i64 noundef %0, i64 noundef %1, i64 noundef %2, i64 noundef %3) #0 {
  %5 = alloca i128, align 16
  %6 = alloca i128, align 16
  %7 = alloca i128, align 16
  %8 = alloca i128, align 16
  %9 = alloca i128, align 16
  %10 = getelementptr inbounds { i64, i64 }, ptr %6, i32 0, i32 0
  store i64 %0, ptr %10, align 16
  %11 = getelementptr inbounds { i64, i64 }, ptr %6, i32 0, i32 1
  store i64 %1, ptr %11, align 8
  %12 = load i128, ptr %6, align 16
  %13 = getelementptr inbounds { i64, i64 }, ptr %7, i32 0, i32 0
  store i64 %2, ptr %13, align 16
  %14 = getelementptr inbounds { i64, i64 }, ptr %7, i32 0, i32 1
  store i64 %3, ptr %14, align 8
  %15 = load i128, ptr %7, align 16
  store i128 %12, ptr %8, align 16
  store i128 %15, ptr %9, align 16
  %16 = load i128, ptr %8, align 16
  %17 = load i128, ptr %9, align 16
  %18 = mul i128 %16, %17
  store i128 %18, ptr %5, align 16
  %19 = load { i64, i64 }, ptr %5, align 16
  ret { i64, i64 } %19
}

; Function Attrs: nounwind uwtable
define internal { i64, i64 } @php_random_uint128_constant(i64 noundef %0, i64 noundef %1) #0 {
  %3 = alloca i128, align 16
  %4 = alloca i64, align 8
  %5 = alloca i64, align 8
  %6 = alloca i128, align 16
  store i64 %0, ptr %4, align 8
  store i64 %1, ptr %5, align 8
  %7 = load i64, ptr %4, align 8
  %8 = zext i64 %7 to i128
  %9 = shl i128 %8, 64
  %10 = load i64, ptr %5, align 8
  %11 = zext i64 %10 to i128
  %12 = add i128 %9, %11
  store i128 %12, ptr %6, align 16
  %13 = load i128, ptr %6, align 16
  store i128 %13, ptr %3, align 16
  %14 = load { i64, i64 }, ptr %3, align 16
  ret { i64, i64 } %14
}

; Function Attrs: nounwind uwtable
define void @php_random_pcgoneseq128xslrr64_advance(ptr noundef %0, i64 noundef %1) #0 {
  %3 = alloca ptr, align 8
  %4 = alloca i64, align 8
  %5 = alloca i128, align 16
  %6 = alloca i128, align 16
  %7 = alloca i128, align 16
  %8 = alloca i128, align 16
  %9 = alloca i128, align 16
  %10 = alloca i128, align 16
  %11 = alloca i128, align 16
  %12 = alloca i128, align 16
  %13 = alloca i128, align 16
  %14 = alloca i128, align 16
  %15 = alloca i128, align 16
  %16 = alloca i128, align 16
  %17 = alloca i128, align 16
  %18 = alloca i128, align 16
  %19 = alloca i128, align 16
  %20 = alloca i128, align 16
  %21 = alloca i128, align 16
  %22 = alloca i128, align 16
  %23 = alloca i128, align 16
  %24 = alloca i128, align 16
  %25 = alloca i128, align 16
  %26 = alloca i128, align 16
  %27 = alloca i128, align 16
  %28 = alloca i128, align 16
  %29 = alloca i128, align 16
  %30 = alloca i128, align 16
  %31 = alloca i128, align 16
  %32 = alloca i128, align 16
  %33 = alloca i128, align 16
  %34 = alloca i128, align 16
  %35 = alloca i128, align 16
  %36 = alloca i128, align 16
  %37 = alloca i128, align 16
  store ptr %0, ptr %3, align 8
  store i64 %1, ptr %4, align 8
  %38 = call { i64, i64 } @php_random_uint128_constant(i64 noundef 2549297995355413924, i64 noundef 4865540595714422341)
  %39 = getelementptr inbounds { i64, i64 }, ptr %6, i32 0, i32 0
  %40 = extractvalue { i64, i64 } %38, 0
  store i64 %40, ptr %39, align 16
  %41 = getelementptr inbounds { i64, i64 }, ptr %6, i32 0, i32 1
  %42 = extractvalue { i64, i64 } %38, 1
  store i64 %42, ptr %41, align 8
  %43 = load i128, ptr %6, align 16
  store i128 %43, ptr %5, align 16
  %44 = call { i64, i64 } @php_random_uint128_constant(i64 noundef 6364136223846793005, i64 noundef 1442695040888963407)
  %45 = getelementptr inbounds { i64, i64 }, ptr %8, i32 0, i32 0
  %46 = extractvalue { i64, i64 } %44, 0
  store i64 %46, ptr %45, align 16
  %47 = getelementptr inbounds { i64, i64 }, ptr %8, i32 0, i32 1
  %48 = extractvalue { i64, i64 } %44, 1
  store i64 %48, ptr %47, align 8
  %49 = load i128, ptr %8, align 16
  store i128 %49, ptr %7, align 16
  %50 = call { i64, i64 } @php_random_uint128_constant(i64 noundef 0, i64 noundef 1)
  %51 = getelementptr inbounds { i64, i64 }, ptr %10, i32 0, i32 0
  %52 = extractvalue { i64, i64 } %50, 0
  store i64 %52, ptr %51, align 16
  %53 = getelementptr inbounds { i64, i64 }, ptr %10, i32 0, i32 1
  %54 = extractvalue { i64, i64 } %50, 1
  store i64 %54, ptr %53, align 8
  %55 = load i128, ptr %10, align 16
  store i128 %55, ptr %9, align 16
  %56 = call { i64, i64 } @php_random_uint128_constant(i64 noundef 0, i64 noundef 0)
  %57 = getelementptr inbounds { i64, i64 }, ptr %12, i32 0, i32 0
  %58 = extractvalue { i64, i64 } %56, 0
  store i64 %58, ptr %57, align 16
  %59 = getelementptr inbounds { i64, i64 }, ptr %12, i32 0, i32 1
  %60 = extractvalue { i64, i64 } %56, 1
  store i64 %60, ptr %59, align 8
  %61 = load i128, ptr %12, align 16
  store i128 %61, ptr %11, align 16
  br label %62

62:                                               ; preds = %117, %2
  %63 = load i64, ptr %4, align 8
  %64 = icmp ugt i64 %63, 0
  br i1 %64, label %65, label %172

65:                                               ; preds = %62
  %66 = load i64, ptr %4, align 8
  %67 = and i64 %66, 1
  %68 = icmp ne i64 %67, 0
  br i1 %68, label %69, label %117

69:                                               ; preds = %65
  %70 = load i128, ptr %9, align 16
  %71 = load i128, ptr %5, align 16
  store i128 %70, ptr %13, align 16
  %72 = getelementptr inbounds { i64, i64 }, ptr %13, i32 0, i32 0
  %73 = load i64, ptr %72, align 16
  %74 = getelementptr inbounds { i64, i64 }, ptr %13, i32 0, i32 1
  %75 = load i64, ptr %74, align 8
  store i128 %71, ptr %14, align 16
  %76 = getelementptr inbounds { i64, i64 }, ptr %14, i32 0, i32 0
  %77 = load i64, ptr %76, align 16
  %78 = getelementptr inbounds { i64, i64 }, ptr %14, i32 0, i32 1
  %79 = load i64, ptr %78, align 8
  %80 = call { i64, i64 } @php_random_uint128_multiply(i64 noundef %73, i64 noundef %75, i64 noundef %77, i64 noundef %79)
  %81 = getelementptr inbounds { i64, i64 }, ptr %15, i32 0, i32 0
  %82 = extractvalue { i64, i64 } %80, 0
  store i64 %82, ptr %81, align 16
  %83 = getelementptr inbounds { i64, i64 }, ptr %15, i32 0, i32 1
  %84 = extractvalue { i64, i64 } %80, 1
  store i64 %84, ptr %83, align 8
  %85 = load i128, ptr %15, align 16
  store i128 %85, ptr %9, align 16
  %86 = load i128, ptr %11, align 16
  %87 = load i128, ptr %5, align 16
  store i128 %86, ptr %16, align 16
  %88 = getelementptr inbounds { i64, i64 }, ptr %16, i32 0, i32 0
  %89 = load i64, ptr %88, align 16
  %90 = getelementptr inbounds { i64, i64 }, ptr %16, i32 0, i32 1
  %91 = load i64, ptr %90, align 8
  store i128 %87, ptr %17, align 16
  %92 = getelementptr inbounds { i64, i64 }, ptr %17, i32 0, i32 0
  %93 = load i64, ptr %92, align 16
  %94 = getelementptr inbounds { i64, i64 }, ptr %17, i32 0, i32 1
  %95 = load i64, ptr %94, align 8
  %96 = call { i64, i64 } @php_random_uint128_multiply(i64 noundef %89, i64 noundef %91, i64 noundef %93, i64 noundef %95)
  %97 = getelementptr inbounds { i64, i64 }, ptr %18, i32 0, i32 0
  %98 = extractvalue { i64, i64 } %96, 0
  store i64 %98, ptr %97, align 16
  %99 = getelementptr inbounds { i64, i64 }, ptr %18, i32 0, i32 1
  %100 = extractvalue { i64, i64 } %96, 1
  store i64 %100, ptr %99, align 8
  %101 = load i128, ptr %18, align 16
  %102 = load i128, ptr %7, align 16
  store i128 %101, ptr %19, align 16
  %103 = getelementptr inbounds { i64, i64 }, ptr %19, i32 0, i32 0
  %104 = load i64, ptr %103, align 16
  %105 = getelementptr inbounds { i64, i64 }, ptr %19, i32 0, i32 1
  %106 = load i64, ptr %105, align 8
  store i128 %102, ptr %20, align 16
  %107 = getelementptr inbounds { i64, i64 }, ptr %20, i32 0, i32 0
  %108 = load i64, ptr %107, align 16
  %109 = getelementptr inbounds { i64, i64 }, ptr %20, i32 0, i32 1
  %110 = load i64, ptr %109, align 8
  %111 = call { i64, i64 } @php_random_uint128_add(i64 noundef %104, i64 noundef %106, i64 noundef %108, i64 noundef %110)
  %112 = getelementptr inbounds { i64, i64 }, ptr %21, i32 0, i32 0
  %113 = extractvalue { i64, i64 } %111, 0
  store i64 %113, ptr %112, align 16
  %114 = getelementptr inbounds { i64, i64 }, ptr %21, i32 0, i32 1
  %115 = extractvalue { i64, i64 } %111, 1
  store i64 %115, ptr %114, align 8
  %116 = load i128, ptr %21, align 16
  store i128 %116, ptr %11, align 16
  br label %117

117:                                              ; preds = %69, %65
  %118 = load i128, ptr %5, align 16
  %119 = call { i64, i64 } @php_random_uint128_constant(i64 noundef 0, i64 noundef 1)
  %120 = getelementptr inbounds { i64, i64 }, ptr %22, i32 0, i32 0
  %121 = extractvalue { i64, i64 } %119, 0
  store i64 %121, ptr %120, align 16
  %122 = getelementptr inbounds { i64, i64 }, ptr %22, i32 0, i32 1
  %123 = extractvalue { i64, i64 } %119, 1
  store i64 %123, ptr %122, align 8
  %124 = load i128, ptr %22, align 16
  store i128 %118, ptr %23, align 16
  %125 = getelementptr inbounds { i64, i64 }, ptr %23, i32 0, i32 0
  %126 = load i64, ptr %125, align 16
  %127 = getelementptr inbounds { i64, i64 }, ptr %23, i32 0, i32 1
  %128 = load i64, ptr %127, align 8
  store i128 %124, ptr %24, align 16
  %129 = getelementptr inbounds { i64, i64 }, ptr %24, i32 0, i32 0
  %130 = load i64, ptr %129, align 16
  %131 = getelementptr inbounds { i64, i64 }, ptr %24, i32 0, i32 1
  %132 = load i64, ptr %131, align 8
  %133 = call { i64, i64 } @php_random_uint128_add(i64 noundef %126, i64 noundef %128, i64 noundef %130, i64 noundef %132)
  %134 = getelementptr inbounds { i64, i64 }, ptr %25, i32 0, i32 0
  %135 = extractvalue { i64, i64 } %133, 0
  store i64 %135, ptr %134, align 16
  %136 = getelementptr inbounds { i64, i64 }, ptr %25, i32 0, i32 1
  %137 = extractvalue { i64, i64 } %133, 1
  store i64 %137, ptr %136, align 8
  %138 = load i128, ptr %25, align 16
  %139 = load i128, ptr %7, align 16
  store i128 %138, ptr %26, align 16
  %140 = getelementptr inbounds { i64, i64 }, ptr %26, i32 0, i32 0
  %141 = load i64, ptr %140, align 16
  %142 = getelementptr inbounds { i64, i64 }, ptr %26, i32 0, i32 1
  %143 = load i64, ptr %142, align 8
  store i128 %139, ptr %27, align 16
  %144 = getelementptr inbounds { i64, i64 }, ptr %27, i32 0, i32 0
  %145 = load i64, ptr %144, align 16
  %146 = getelementptr inbounds { i64, i64 }, ptr %27, i32 0, i32 1
  %147 = load i64, ptr %146, align 8
  %148 = call { i64, i64 } @php_random_uint128_multiply(i64 noundef %141, i64 noundef %143, i64 noundef %145, i64 noundef %147)
  %149 = getelementptr inbounds { i64, i64 }, ptr %28, i32 0, i32 0
  %150 = extractvalue { i64, i64 } %148, 0
  store i64 %150, ptr %149, align 16
  %151 = getelementptr inbounds { i64, i64 }, ptr %28, i32 0, i32 1
  %152 = extractvalue { i64, i64 } %148, 1
  store i64 %152, ptr %151, align 8
  %153 = load i128, ptr %28, align 16
  store i128 %153, ptr %7, align 16
  %154 = load i128, ptr %5, align 16
  %155 = load i128, ptr %5, align 16
  store i128 %154, ptr %29, align 16
  %156 = getelementptr inbounds { i64, i64 }, ptr %29, i32 0, i32 0
  %157 = load i64, ptr %156, align 16
  %158 = getelementptr inbounds { i64, i64 }, ptr %29, i32 0, i32 1
  %159 = load i64, ptr %158, align 8
  store i128 %155, ptr %30, align 16
  %160 = getelementptr inbounds { i64, i64 }, ptr %30, i32 0, i32 0
  %161 = load i64, ptr %160, align 16
  %162 = getelementptr inbounds { i64, i64 }, ptr %30, i32 0, i32 1
  %163 = load i64, ptr %162, align 8
  %164 = call { i64, i64 } @php_random_uint128_multiply(i64 noundef %157, i64 noundef %159, i64 noundef %161, i64 noundef %163)
  %165 = getelementptr inbounds { i64, i64 }, ptr %31, i32 0, i32 0
  %166 = extractvalue { i64, i64 } %164, 0
  store i64 %166, ptr %165, align 16
  %167 = getelementptr inbounds { i64, i64 }, ptr %31, i32 0, i32 1
  %168 = extractvalue { i64, i64 } %164, 1
  store i64 %168, ptr %167, align 8
  %169 = load i128, ptr %31, align 16
  store i128 %169, ptr %5, align 16
  %170 = load i64, ptr %4, align 8
  %171 = udiv i64 %170, 2
  store i64 %171, ptr %4, align 8
  br label %62

172:                                              ; preds = %62
  %173 = load i128, ptr %9, align 16
  %174 = load ptr, ptr %3, align 8
  %175 = getelementptr inbounds %struct._php_random_status_state_pcgoneseq128xslrr64, ptr %174, i32 0, i32 0
  %176 = load i128, ptr %175, align 16
  store i128 %173, ptr %32, align 16
  %177 = getelementptr inbounds { i64, i64 }, ptr %32, i32 0, i32 0
  %178 = load i64, ptr %177, align 16
  %179 = getelementptr inbounds { i64, i64 }, ptr %32, i32 0, i32 1
  %180 = load i64, ptr %179, align 8
  store i128 %176, ptr %33, align 16
  %181 = getelementptr inbounds { i64, i64 }, ptr %33, i32 0, i32 0
  %182 = load i64, ptr %181, align 16
  %183 = getelementptr inbounds { i64, i64 }, ptr %33, i32 0, i32 1
  %184 = load i64, ptr %183, align 8
  %185 = call { i64, i64 } @php_random_uint128_multiply(i64 noundef %178, i64 noundef %180, i64 noundef %182, i64 noundef %184)
  %186 = getelementptr inbounds { i64, i64 }, ptr %34, i32 0, i32 0
  %187 = extractvalue { i64, i64 } %185, 0
  store i64 %187, ptr %186, align 16
  %188 = getelementptr inbounds { i64, i64 }, ptr %34, i32 0, i32 1
  %189 = extractvalue { i64, i64 } %185, 1
  store i64 %189, ptr %188, align 8
  %190 = load i128, ptr %34, align 16
  %191 = load i128, ptr %11, align 16
  store i128 %190, ptr %35, align 16
  %192 = getelementptr inbounds { i64, i64 }, ptr %35, i32 0, i32 0
  %193 = load i64, ptr %192, align 16
  %194 = getelementptr inbounds { i64, i64 }, ptr %35, i32 0, i32 1
  %195 = load i64, ptr %194, align 8
  store i128 %191, ptr %36, align 16
  %196 = getelementptr inbounds { i64, i64 }, ptr %36, i32 0, i32 0
  %197 = load i64, ptr %196, align 16
  %198 = getelementptr inbounds { i64, i64 }, ptr %36, i32 0, i32 1
  %199 = load i64, ptr %198, align 8
  %200 = call { i64, i64 } @php_random_uint128_add(i64 noundef %193, i64 noundef %195, i64 noundef %197, i64 noundef %199)
  %201 = getelementptr inbounds { i64, i64 }, ptr %37, i32 0, i32 0
  %202 = extractvalue { i64, i64 } %200, 0
  store i64 %202, ptr %201, align 16
  %203 = getelementptr inbounds { i64, i64 }, ptr %37, i32 0, i32 1
  %204 = extractvalue { i64, i64 } %200, 1
  store i64 %204, ptr %203, align 8
  %205 = load i128, ptr %37, align 16
  %206 = load ptr, ptr %3, align 8
  %207 = getelementptr inbounds %struct._php_random_status_state_pcgoneseq128xslrr64, ptr %206, i32 0, i32 0
  store i128 %205, ptr %207, align 16
  ret void
}