; Function Attrs: nofree norecurse nosync nounwind memory(argmem: readwrite) uwtable
define void @php_random_pcgoneseq128xslrr64_advance(ptr nocapture noundef %0, i64 noundef %1) local_unnamed_addr #3 {
  %.not191 = icmp eq i64 %1, 0
  br i1 %.not191, label %._crit_edge, label %.lr.ph

.lr.ph:                                           ; preds = %2, %8
  %.072.off0200 = phi i64 [ %.sroa.04.0.extract.trunc.i149, %8 ], [ 1442695040888963407, %2 ]
  %.072.off64199 = phi i64 [ %.sroa.25.0.extract.trunc.i151, %8 ], [ 6364136223846793005, %2 ]
  %.071.off0198 = phi i64 [ %.sroa.04.0.extract.trunc.i162, %8 ], [ 4865540595714422341, %2 ]
  %.071.off64197 = phi i64 [ %.sroa.25.0.extract.trunc.i164, %8 ], [ 2549297995355413924, %2 ]
  %.0196 = phi i64 [ %11, %8 ], [ %1, %2 ]
  %.073.off64195 = phi i64 [ %.1.off64, %8 ], [ 0, %2 ]
  %.073.off0194 = phi i64 [ %.1.off0, %8 ], [ 1, %2 ]
  %.074.off64193 = phi i64 [ %.175.off64, %8 ], [ 0, %2 ]
  %.074.off0192 = phi i64 [ %.175.off0, %8 ], [ 0, %2 ]
  %3 = and i64 %.0196, 1
  %.not107 = icmp eq i64 %3, 0
  br i1 %.not107, label %.lr.ph._crit_edge, label %4

.lr.ph._crit_edge:                                ; preds = %.lr.ph
  %.pre = zext i64 %.071.off64197 to i128
  %.pre204 = shl nuw i128 %.pre, 64
  %.pre205 = zext i64 %.071.off0198 to i128
  %.pre206 = or disjoint i128 %.pre204, %.pre205
  %.pre207 = zext i64 %.072.off0200 to i128
  br label %8

4:                                                ; preds = %.lr.ph
  %.sroa.23.0.insert.ext.i = zext i64 %.073.off64195 to i128
  %.sroa.23.0.insert.shift.i = shl nuw i128 %.sroa.23.0.insert.ext.i, 64
  %.sroa.02.0.insert.ext.i = zext i64 %.073.off0194 to i128
  %.sroa.02.0.insert.insert.i = or disjoint i128 %.sroa.23.0.insert.shift.i, %.sroa.02.0.insert.ext.i
  %.sroa.2.0.insert.ext.i = zext i64 %.071.off64197 to i128
  %.sroa.2.0.insert.shift.i = shl nuw i128 %.sroa.2.0.insert.ext.i, 64
  %.sroa.0.0.insert.ext.i = zext i64 %.071.off0198 to i128
  %.sroa.0.0.insert.insert.i = or disjoint i128 %.sroa.2.0.insert.shift.i, %.sroa.0.0.insert.ext.i
  %5 = mul i128 %.sroa.0.0.insert.insert.i, %.sroa.02.0.insert.insert.i
  %.sroa.04.0.extract.trunc.i = trunc i128 %5 to i64
  %.sroa.25.0.extract.shift.i = lshr i128 %5, 64
  %.sroa.25.0.extract.trunc.i = trunc i128 %.sroa.25.0.extract.shift.i to i64
  %.sroa.23.0.insert.ext.i108 = zext i64 %.074.off64193 to i128
  %.sroa.23.0.insert.shift.i109 = shl nuw i128 %.sroa.23.0.insert.ext.i108, 64
  %.sroa.02.0.insert.ext.i110 = zext i64 %.074.off0192 to i128
  %.sroa.02.0.insert.insert.i111 = or disjoint i128 %.sroa.23.0.insert.shift.i109, %.sroa.02.0.insert.ext.i110
  %6 = mul i128 %.sroa.0.0.insert.insert.i, %.sroa.02.0.insert.insert.i111
  %.sroa.0.0.insert.ext.i124 = zext i64 %.072.off0200 to i128
  %.sroa.02.0.insert.insert.i126 = add i128 %6, %.sroa.0.0.insert.ext.i124
  %.sroa.04.0.extract.trunc.i127 = trunc i128 %.sroa.02.0.insert.insert.i126 to i64
  %7 = lshr i128 %.sroa.02.0.insert.insert.i126, 64
  %.tr.i = trunc i128 %7 to i64
  %.narrow.i = add i64 %.072.off64199, %.tr.i
  br label %8

8:                                                ; preds = %.lr.ph._crit_edge, %4
  %.sroa.0.0.insert.ext.i147.pre-phi = phi i128 [ %.pre207, %.lr.ph._crit_edge ], [ %.sroa.0.0.insert.ext.i124, %4 ]
  %.sroa.0.0.insert.insert.i134.pre-phi = phi i128 [ %.pre206, %.lr.ph._crit_edge ], [ %.sroa.0.0.insert.insert.i, %4 ]
  %.175.off0 = phi i64 [ %.074.off0192, %.lr.ph._crit_edge ], [ %.sroa.04.0.extract.trunc.i127, %4 ]
  %.175.off64 = phi i64 [ %.074.off64193, %.lr.ph._crit_edge ], [ %.narrow.i, %4 ]
  %.1.off0 = phi i64 [ %.073.off0194, %.lr.ph._crit_edge ], [ %.sroa.04.0.extract.trunc.i, %4 ]
  %.1.off64 = phi i64 [ %.073.off64195, %.lr.ph._crit_edge ], [ %.sroa.25.0.extract.trunc.i, %4 ]
  %.sroa.02.0.insert.insert.i135 = add i128 %.sroa.0.0.insert.insert.i134.pre-phi, 1
  %.sroa.2.0.insert.ext.i145 = zext i64 %.072.off64199 to i128
  %.sroa.2.0.insert.shift.i146 = shl nuw i128 %.sroa.2.0.insert.ext.i145, 64
  %.sroa.0.0.insert.insert.i148 = or disjoint i128 %.sroa.2.0.insert.shift.i146, %.sroa.0.0.insert.ext.i147.pre-phi
  %9 = mul i128 %.sroa.02.0.insert.insert.i135, %.sroa.0.0.insert.insert.i148
  %.sroa.04.0.extract.trunc.i149 = trunc i128 %9 to i64
  %.sroa.25.0.extract.shift.i150 = lshr i128 %9, 64
  %.sroa.25.0.extract.trunc.i151 = trunc i128 %.sroa.25.0.extract.shift.i150 to i64
  %10 = mul i128 %.sroa.0.0.insert.insert.i134.pre-phi, %.sroa.0.0.insert.insert.i134.pre-phi
  %.sroa.04.0.extract.trunc.i162 = trunc i128 %10 to i64
  %.sroa.25.0.extract.shift.i163 = lshr i128 %10, 64
  %.sroa.25.0.extract.trunc.i164 = trunc i128 %.sroa.25.0.extract.shift.i163 to i64
  %11 = lshr i64 %.0196, 1
  %.not = icmp ult i64 %.0196, 2
  br i1 %.not, label %._crit_edge, label %.lr.ph

._crit_edge:                                      ; preds = %8, %2
  %.074.off0.lcssa = phi i64 [ 0, %2 ], [ %.175.off0, %8 ]
  %.074.off64.lcssa = phi i64 [ 0, %2 ], [ %.175.off64, %8 ]
  %.073.off0.lcssa = phi i64 [ 1, %2 ], [ %.1.off0, %8 ]
  %.073.off64.lcssa = phi i64 [ 0, %2 ], [ %.1.off64, %8 ]
  %12 = load i128, ptr %0, align 16
  %.sroa.23.0.insert.ext.i167 = zext i64 %.073.off64.lcssa to i128
  %.sroa.23.0.insert.shift.i168 = shl nuw i128 %.sroa.23.0.insert.ext.i167, 64
  %.sroa.02.0.insert.ext.i169 = zext i64 %.073.off0.lcssa to i128
  %.sroa.02.0.insert.insert.i170 = or disjoint i128 %.sroa.23.0.insert.shift.i168, %.sroa.02.0.insert.ext.i169
  %13 = mul i128 %12, %.sroa.02.0.insert.insert.i170
  %.sroa.0.0.insert.ext.i183 = zext i64 %.074.off0.lcssa to i128
  %.sroa.02.0.insert.insert.i185 = add i128 %13, %.sroa.0.0.insert.ext.i183
  %14 = lshr i128 %.sroa.02.0.insert.insert.i185, 64
  %.tr.i187 = trunc i128 %14 to i64
  %.narrow.i188 = add i64 %.074.off64.lcssa, %.tr.i187
  %.sroa.2.0.insert.ext = zext i64 %.narrow.i188 to i128
  %.sroa.2.0.insert.shift = shl nuw i128 %.sroa.2.0.insert.ext, 64
  %.sroa.0.0.insert.ext = and i128 %.sroa.02.0.insert.insert.i185, 18446744073709551615
  %.sroa.0.0.insert.insert = or disjoint i128 %.sroa.2.0.insert.shift, %.sroa.0.0.insert.ext
  store i128 %.sroa.0.0.insert.insert, ptr %0, align 16
  ret void
}